#include <math.h>
#include <stdio.h>
#include <stdlib.h>
#include <string.h>

void main()
{
	long n,k,i,j,m;
	scanf("%ld %ld",&n,&k);
	i=1;
begin:m=n*i+k;
	  j=1;
judge: if (n*m%(n-1)==0)
	  {
		  j++;
		  m=n*m/(n-1)+k;
		  if (j==n)
		  {
			  printf("%ld\n",m);
			  goto end;
		  }
		  goto judge;
	   }
	   else
	   {
		   i++;
		   goto begin;
	   }
end:;
}
