; ModuleID = '54/127.c'
source_filename = "54/127.c"
target datalayout = "e-m:e-p270:32:32-p271:32:32-p272:64:64-i64:64-f80:128-n8:16:32:64-S128"
target triple = "x86_64-pc-linux-gnu"

@.str = private unnamed_addr constant [8 x i8] c"%ld %ld\00", align 1
@.str.1 = private unnamed_addr constant [5 x i8] c"%ld\0A\00", align 1

; Function Attrs: noinline nounwind uwtable
define dso_local void @main() #0 {
  %1 = alloca i64, align 8
  %2 = alloca i64, align 8
  %3 = alloca i64, align 8
  %4 = alloca i64, align 8
  %5 = alloca i64, align 8
  %6 = call i32 (i8*, ...) @__isoc99_scanf(i8* getelementptr inbounds ([8 x i8], [8 x i8]* @.str, i64 0, i64 0), i64* %1, i64* %2)
  store i64 1, i64* %3, align 8
  br label %7

7:                                                ; preds = %39, %0
  %8 = load i64, i64* %1, align 8
  %9 = load i64, i64* %3, align 8
  %10 = mul nsw i64 %8, %9
  %11 = load i64, i64* %2, align 8
  %12 = add nsw i64 %10, %11
  store i64 %12, i64* %5, align 8
  store i64 1, i64* %4, align 8
  br label %13

13:                                               ; preds = %38, %7
  %14 = load i64, i64* %1, align 8
  %15 = load i64, i64* %5, align 8
  %16 = mul nsw i64 %14, %15
  %17 = load i64, i64* %1, align 8
  %18 = sub nsw i64 %17, 1
  %19 = srem i64 %16, %18
  %20 = icmp eq i64 %19, 0
  br i1 %20, label %21, label %39

21:                                               ; preds = %13
  %22 = load i64, i64* %4, align 8
  %23 = add nsw i64 %22, 1
  store i64 %23, i64* %4, align 8
  %24 = load i64, i64* %1, align 8
  %25 = load i64, i64* %5, align 8
  %26 = mul nsw i64 %24, %25
  %27 = load i64, i64* %1, align 8
  %28 = sub nsw i64 %27, 1
  %29 = sdiv i64 %26, %28
  %30 = load i64, i64* %2, align 8
  %31 = add nsw i64 %29, %30
  store i64 %31, i64* %5, align 8
  %32 = load i64, i64* %4, align 8
  %33 = load i64, i64* %1, align 8
  %34 = icmp eq i64 %32, %33
  br i1 %34, label %35, label %38

35:                                               ; preds = %21
  %36 = load i64, i64* %5, align 8
  %37 = call i32 (i8*, ...) @printf(i8* getelementptr inbounds ([5 x i8], [5 x i8]* @.str.1, i64 0, i64 0), i64 %36)
  br label %42

38:                                               ; preds = %21
  br label %13

39:                                               ; preds = %13
  %40 = load i64, i64* %3, align 8
  %41 = add nsw i64 %40, 1
  store i64 %41, i64* %3, align 8
  br label %7

42:                                               ; preds = %35
  ret void
}

declare dso_local i32 @__isoc99_scanf(i8*, ...) #1

declare dso_local i32 @printf(i8*, ...) #1


!llvm.module.flags = !{!0}
!llvm.ident = !{!1}

!0 = !{i32 1, !"wchar_size", i32 4}
!1 = !{!"clang version 10.0.0-4ubuntu1 "}
