; ModuleID = 'source-C-CXX/53/127.c'
source_filename = "source-C-CXX/53/127.c"
target datalayout = "e-m:e-p270:32:32-p271:32:32-p272:64:64-i64:64-f80:128-n8:16:32:64-S128"
target triple = "x86_64-pc-linux-gnu"

@.str = private unnamed_addr constant [8 x i8] c"%ld %ld\00", align 1
@.str.1 = private unnamed_addr constant [5 x i8] c"%ld\0A\00", align 1

; Function Attrs: nofree nounwind sspstrong uwtable
define dso_local void @main() local_unnamed_addr #0 {
  %1 = alloca i64, align 8
  %2 = alloca i64, align 8
  %3 = bitcast i64* %1 to i8*
  call void @llvm.lifetime.start.p0i8(i64 8, i8* nonnull %3) #3
  %4 = bitcast i64* %2 to i8*
  call void @llvm.lifetime.start.p0i8(i64 8, i8* nonnull %4) #3
  %5 = call i32 (i8*, ...) @__isoc99_scanf(i8* getelementptr inbounds ([8 x i8], [8 x i8]* @.str, i64 0, i64 0), i64* nonnull %1, i64* nonnull %2)
  %6 = load i64, i64* %1, align 8, !tbaa !5
  %7 = load i64, i64* %2, align 8, !tbaa !5
  %8 = add nsw i64 %6, -1
  br label %9

9:                                                ; preds = %26, %0
  %10 = phi i64 [ 1, %0 ], [ %27, %26 ]
  %11 = mul nsw i64 %6, %10
  %12 = add nsw i64 %11, %7
  br label %13

13:                                               ; preds = %20, %9
  %14 = phi i64 [ 1, %9 ], [ %21, %20 ]
  %15 = phi i64 [ %12, %9 ], [ %22, %20 ]
  %16 = mul nsw i64 %15, %6
  %17 = srem i64 %16, %8
  %18 = sdiv i64 %16, %8
  %19 = icmp eq i64 %17, 0
  br i1 %19, label %20, label %26

20:                                               ; preds = %13
  %21 = add nuw nsw i64 %14, 1
  %22 = add nsw i64 %18, %7
  %23 = icmp eq i64 %21, %6
  br i1 %23, label %24, label %13

24:                                               ; preds = %20
  %25 = call i32 (i8*, ...) @printf(i8* nonnull dereferenceable(1) getelementptr inbounds ([5 x i8], [5 x i8]* @.str.1, i64 0, i64 0), i64 %22)
  call void @llvm.lifetime.end.p0i8(i64 8, i8* nonnull %4) #3
  call void @llvm.lifetime.end.p0i8(i64 8, i8* nonnull %3) #3
  ret void

26:                                               ; preds = %13
  %27 = add nuw nsw i64 %10, 1
  br label %9
}

; Function Attrs: argmemonly mustprogress nofree nosync nounwind willreturn
declare void @llvm.lifetime.start.p0i8(i64 immarg, i8* nocapture) #1

; Function Attrs: nofree nounwind
declare noundef i32 @__isoc99_scanf(i8* nocapture noundef readonly, ...) local_unnamed_addr #2

; Function Attrs: nofree nounwind
declare noundef i32 @printf(i8* nocapture noundef readonly, ...) local_unnamed_addr #2

; Function Attrs: argmemonly mustprogress nofree nosync nounwind willreturn
declare void @llvm.lifetime.end.p0i8(i64 immarg, i8* nocapture) #1


!llvm.module.flags = !{!0, !1, !2, !3}
!llvm.ident = !{!4}

!0 = !{i32 1, !"wchar_size", i32 4}
!1 = !{i32 7, !"PIC Level", i32 2}
!2 = !{i32 7, !"PIE Level", i32 2}
!3 = !{i32 7, !"uwtable", i32 1}
!4 = !{!"clang version 13.0.0"}
!5 = !{!6, !6, i64 0}
!6 = !{!"long", !7, i64 0}
!7 = !{!"omnipotent char", !8, i64 0}
!8 = !{!"Simple C/C++ TBAA"}
